target datalayout = "e-m:e-p270:32:32-p271:32:32-p272:64:64-i64:64-i128:128-f80:128-n8:16:32:64-S128"
target triple = "x86_64-pc-linux-gnu"

%struct.FxuDouble = type { i32, i32, i32, i32, %struct.FxuListPair, ptr, ptr, ptr }
%struct.FxuListPair = type { ptr, ptr, i32 }
%struct.FxuPair = type { i32, i32, i32, ptr, ptr, ptr, i32, i32, ptr, ptr }

; Function Attrs: nounwind uwtable
define void @Fxu_ListDoubleAddPairLast(ptr noundef %0, ptr noundef %1) #0 {
  %3 = alloca ptr, align 8
  %4 = alloca ptr, align 8
  %5 = alloca ptr, align 8
  store ptr %0, ptr %3, align 8, !tbaa !45
  store ptr %1, ptr %4, align 8, !tbaa !80
  call void @llvm.lifetime.start.p0(i64 8, ptr %5) #3
  %6 = load ptr, ptr %3, align 8, !tbaa !45
  %7 = getelementptr inbounds nuw %struct.FxuDouble, ptr %6, i32 0, i32 4
  store ptr %7, ptr %5, align 8, !tbaa !81
  %8 = load ptr, ptr %5, align 8, !tbaa !81
  %9 = getelementptr inbounds nuw %struct.FxuListPair, ptr %8, i32 0, i32 0
  %10 = load ptr, ptr %9, align 8, !tbaa !83
  %11 = icmp eq ptr %10, null
  br i1 %11, label %12, label %23

12:                                               ; preds = %2
  %13 = load ptr, ptr %4, align 8, !tbaa !80
  %14 = load ptr, ptr %5, align 8, !tbaa !81
  %15 = getelementptr inbounds nuw %struct.FxuListPair, ptr %14, i32 0, i32 0
  store ptr %13, ptr %15, align 8, !tbaa !83
  %16 = load ptr, ptr %4, align 8, !tbaa !80
  %17 = load ptr, ptr %5, align 8, !tbaa !81
  %18 = getelementptr inbounds nuw %struct.FxuListPair, ptr %17, i32 0, i32 1
  store ptr %16, ptr %18, align 8, !tbaa !84
  %19 = load ptr, ptr %4, align 8, !tbaa !80
  %20 = getelementptr inbounds nuw %struct.FxuPair, ptr %19, i32 0, i32 8
  store ptr null, ptr %20, align 8, !tbaa !85
  %21 = load ptr, ptr %4, align 8, !tbaa !80
  %22 = getelementptr inbounds nuw %struct.FxuPair, ptr %21, i32 0, i32 9
  store ptr null, ptr %22, align 8, !tbaa !87
  br label %39

23:                                               ; preds = %2
  %24 = load ptr, ptr %4, align 8, !tbaa !80
  %25 = getelementptr inbounds nuw %struct.FxuPair, ptr %24, i32 0, i32 9
  store ptr null, ptr %25, align 8, !tbaa !87
  %26 = load ptr, ptr %4, align 8, !tbaa !80
  %27 = load ptr, ptr %5, align 8, !tbaa !81
  %28 = getelementptr inbounds nuw %struct.FxuListPair, ptr %27, i32 0, i32 1
  %29 = load ptr, ptr %28, align 8, !tbaa !84
  %30 = getelementptr inbounds nuw %struct.FxuPair, ptr %29, i32 0, i32 9
  store ptr %26, ptr %30, align 8, !tbaa !87
  %31 = load ptr, ptr %5, align 8, !tbaa !81
  %32 = getelementptr inbounds nuw %struct.FxuListPair, ptr %31, i32 0, i32 1
  %33 = load ptr, ptr %32, align 8, !tbaa !84
  %34 = load ptr, ptr %4, align 8, !tbaa !80
  %35 = getelementptr inbounds nuw %struct.FxuPair, ptr %34, i32 0, i32 8
  store ptr %33, ptr %35, align 8, !tbaa !85
  %36 = load ptr, ptr %4, align 8, !tbaa !80
  %37 = load ptr, ptr %5, align 8, !tbaa !81
  %38 = getelementptr inbounds nuw %struct.FxuListPair, ptr %37, i32 0, i32 1
  store ptr %36, ptr %38, align 8, !tbaa !84
  br label %39

39:                                               ; preds = %23, %12
  %40 = load ptr, ptr %5, align 8, !tbaa !81
  %41 = getelementptr inbounds nuw %struct.FxuListPair, ptr %40, i32 0, i32 2
  %42 = load i32, ptr %41, align 8, !tbaa !88
  %43 = add nsw i32 %42, 1
  store i32 %43, ptr %41, align 8, !tbaa !88
  call void @llvm.lifetime.end.p0(i64 8, ptr %5) #3
  ret void
}